target datalayout = "e-m:e-p270:32:32-p271:32:32-p272:64:64-i64:64-i128:128-f80:128-n8:16:32:64-S128"
target triple = "x86_64-pc-linux-gnu"

%struct._cwd_state = type { ptr, i64 }
%struct.stat = type { i64, i64, i64, i32, i32, i32, i32, i64, i64, i64, i64, %struct.timespec, %struct.timespec, %struct.timespec, [3 x i64] }
%struct.timespec = type { i64, i64 }

; Function Attrs: nounwind uwtable
define internal i32 @php_is_dir_ok(ptr noundef %0) #0 {
  %2 = alloca i32, align 4
  %3 = alloca ptr, align 8
  %4 = alloca %struct.stat, align 8
  %5 = alloca i32, align 4
  store ptr %0, ptr %3, align 8, !tbaa !24
  call void @llvm.lifetime.start.p0(i64 144, ptr %4) #16
  call void @llvm.memset.p0.i64(ptr align 8 %4, i8 0, i64 144, i1 false)
  %6 = load ptr, ptr %3, align 8, !tbaa !24
  %7 = getelementptr inbounds nuw %struct._cwd_state, ptr %6, i32 0, i32 0
  %8 = load ptr, ptr %7, align 8, !tbaa !7
  %9 = call i32 @stat(ptr noundef %8, ptr noundef %4) #16
  %10 = icmp eq i32 %9, 0
  br i1 %10, label %11, label %17

11:                                               ; preds = %1
  %12 = getelementptr inbounds nuw %struct.stat, ptr %4, i32 0, i32 3
  %13 = load i32, ptr %12, align 8, !tbaa !50
  %14 = and i32 %13, 61440
  %15 = icmp eq i32 %14, 16384
  br i1 %15, label %16, label %17

16:                                               ; preds = %11
  store i32 0, ptr %2, align 4
  store i32 1, ptr %5, align 4
  br label %18

17:                                               ; preds = %11, %1
  store i32 1, ptr %2, align 4
  store i32 1, ptr %5, align 4
  br label %18

18:                                               ; preds = %17, %16
  call void @llvm.lifetime.end.p0(i64 144, ptr %4) #16
  %19 = load i32, ptr %2, align 4
  ret i32 %19
}